target datalayout = "e-m:e-p270:32:32-p271:32:32-p272:64:64-i64:64-i128:128-f80:128-n8:16:32:64-S128"
target triple = "x86_64-pc-linux-gnu"

%struct.Int_Man_t_ = type { ptr, [16 x i32], i32, i32, i32, i32, i32, i32, i32, i32, ptr, ptr, ptr, ptr, ptr, i32, ptr, ptr, i32, i32, i32, ptr, ptr, ptr, i32, i32, i64, i64, i64 }
%struct.Sto_Man_t_ = type { i32, i32, i32, i32, ptr, ptr, ptr, i32, i32, ptr }
%struct.Sto_Cls_t_ = type { ptr, ptr, ptr, i32, i32, [0 x i32] }

; Function Attrs: inlinehint nounwind uwtable
define internal i32 @lit_var(i32 noundef %0) #4 {
  %2 = alloca i32, align 4
  store i32 %0, ptr %2, align 4, !tbaa !20
  %3 = load i32, ptr %2, align 4, !tbaa !20
  %4 = ashr i32 %3, 1
  ret i32 %4
}

; Function Attrs: nounwind uwtable
define i32 @Int_ManGlobalVars(ptr noundef %0) #0 {
  %2 = alloca i32, align 4
  %3 = alloca ptr, align 8
  %4 = alloca ptr, align 8
  %5 = alloca i32, align 4
  %6 = alloca i32, align 4
  %7 = alloca i32, align 4
  %8 = alloca i32, align 4
  store ptr %0, ptr %3, align 8, !tbaa !3
  call void @llvm.lifetime.start.p0(i64 8, ptr %4) #9
  call void @llvm.lifetime.start.p0(i64 4, ptr %5) #9
  call void @llvm.lifetime.start.p0(i64 4, ptr %6) #9
  call void @llvm.lifetime.start.p0(i64 4, ptr %7) #9
  %9 = load ptr, ptr %3, align 8, !tbaa !3
  %10 = getelementptr inbounds nuw %struct.Int_Man_t_, ptr %9, i32 0, i32 0
  %11 = load ptr, ptr %10, align 8, !tbaa !22
  %12 = getelementptr inbounds nuw %struct.Sto_Man_t_, ptr %11, i32 0, i32 4
  %13 = load ptr, ptr %12, align 8, !tbaa !23
  store ptr %13, ptr %4, align 8, !tbaa !26
  br label %14

14:                                               ; preds = %59, %1
  %15 = load ptr, ptr %4, align 8, !tbaa !26
  %16 = icmp ne ptr %15, null
  br i1 %16, label %17, label %24

17:                                               ; preds = %14
  %18 = load ptr, ptr %4, align 8, !tbaa !26
  %19 = getelementptr inbounds nuw %struct.Sto_Cls_t_, ptr %18, i32 0, i32 4
  %20 = load i32, ptr %19, align 4
  %21 = lshr i32 %20, 1
  %22 = and i32 %21, 1
  %23 = icmp ne i32 %22, 0
  br label %24

24:                                               ; preds = %17, %14
  %25 = phi i1 [ false, %14 ], [ %23, %17 ]
  br i1 %25, label %26, label %63

26:                                               ; preds = %24
  %27 = load ptr, ptr %4, align 8, !tbaa !26
  %28 = getelementptr inbounds nuw %struct.Sto_Cls_t_, ptr %27, i32 0, i32 4
  %29 = load i32, ptr %28, align 4
  %30 = and i32 %29, 1
  %31 = icmp ne i32 %30, 0
  br i1 %31, label %33, label %32

32:                                               ; preds = %26
  br label %63

33:                                               ; preds = %26
  store i32 0, ptr %7, align 4, !tbaa !20
  br label %34

34:                                               ; preds = %55, %33
  %35 = load i32, ptr %7, align 4, !tbaa !20
  %36 = load ptr, ptr %4, align 8, !tbaa !26
  %37 = getelementptr inbounds nuw %struct.Sto_Cls_t_, ptr %36, i32 0, i32 4
  %38 = load i32, ptr %37, align 4
  %39 = lshr i32 %38, 3
  %40 = and i32 %39, 16777215
  %41 = icmp slt i32 %35, %40
  br i1 %41, label %42, label %58

42:                                               ; preds = %34
  %43 = load ptr, ptr %3, align 8, !tbaa !3
  %44 = getelementptr inbounds nuw %struct.Int_Man_t_, ptr %43, i32 0, i32 16
  %45 = load ptr, ptr %44, align 8, !tbaa !27
  %46 = load ptr, ptr %4, align 8, !tbaa !26
  %47 = getelementptr inbounds nuw %struct.Sto_Cls_t_, ptr %46, i32 0, i32 5
  %48 = load i32, ptr %7, align 4, !tbaa !20
  %49 = sext i32 %48 to i64
  %50 = getelementptr inbounds [0 x i32], ptr %47, i64 0, i64 %49
  %51 = load i32, ptr %50, align 4, !tbaa !20
  %52 = call i32 @lit_var(i32 noundef %51)
  %53 = sext i32 %52 to i64
  %54 = getelementptr inbounds i32, ptr %45, i64 %53
  store i32 1, ptr %54, align 4, !tbaa !20
  br label %55

55:                                               ; preds = %42
  %56 = load i32, ptr %7, align 4, !tbaa !20
  %57 = add nsw i32 %56, 1
  store i32 %57, ptr %7, align 4, !tbaa !20
  br label %34, !llvm.loop !28

58:                                               ; preds = %34
  br label %59

59:                                               ; preds = %58
  %60 = load ptr, ptr %4, align 8, !tbaa !26
  %61 = getelementptr inbounds nuw %struct.Sto_Cls_t_, ptr %60, i32 0, i32 0
  %62 = load ptr, ptr %61, align 8, !tbaa !30
  store ptr %62, ptr %4, align 8, !tbaa !26
  br label %14, !llvm.loop !32

63:                                               ; preds = %32, %24
  %64 = load ptr, ptr %3, align 8, !tbaa !3
  %65 = getelementptr inbounds nuw %struct.Int_Man_t_, ptr %64, i32 0, i32 2
  %66 = load i32, ptr %65, align 8, !tbaa !21
  %67 = icmp ne i32 %66, 0
  br i1 %67, label %68, label %97

68:                                               ; preds = %63
  store i32 0, ptr %7, align 4, !tbaa !20
  br label %69

69:                                               ; preds = %90, %68
  %70 = load i32, ptr %7, align 4, !tbaa !20
  %71 = load ptr, ptr %3, align 8, !tbaa !3
  %72 = getelementptr inbounds nuw %struct.Int_Man_t_, ptr %71, i32 0, i32 2
  %73 = load i32, ptr %72, align 8, !tbaa !21
  %74 = icmp slt i32 %70, %73
  br i1 %74, label %75, label %93

75:                                               ; preds = %69
  %76 = load i32, ptr %7, align 4, !tbaa !20
  %77 = sub nsw i32 0, %76
  %78 = sub nsw i32 %77, 1
  %79 = load ptr, ptr %3, align 8, !tbaa !3
  %80 = getelementptr inbounds nuw %struct.Int_Man_t_, ptr %79, i32 0, i32 16
  %81 = load ptr, ptr %80, align 8, !tbaa !27
  %82 = load ptr, ptr %3, align 8, !tbaa !3
  %83 = getelementptr inbounds nuw %struct.Int_Man_t_, ptr %82, i32 0, i32 1
  %84 = load i32, ptr %7, align 4, !tbaa !20
  %85 = sext i32 %84 to i64
  %86 = getelementptr inbounds [16 x i32], ptr %83, i64 0, i64 %85
  %87 = load i32, ptr %86, align 4, !tbaa !20
  %88 = sext i32 %87 to i64
  %89 = getelementptr inbounds i32, ptr %81, i64 %88
  store i32 %78, ptr %89, align 4, !tbaa !20
  br label %90

90:                                               ; preds = %75
  %91 = load i32, ptr %7, align 4, !tbaa !20
  %92 = add nsw i32 %91, 1
  store i32 %92, ptr %7, align 4, !tbaa !20
  br label %69, !llvm.loop !33

93:                                               ; preds = %69
  %94 = load ptr, ptr %3, align 8, !tbaa !3
  %95 = getelementptr inbounds nuw %struct.Int_Man_t_, ptr %94, i32 0, i32 2
  %96 = load i32, ptr %95, align 8, !tbaa !21
  store i32 %96, ptr %2, align 4
  store i32 1, ptr %8, align 4
  br label %200

97:                                               ; preds = %63
  store i32 0, ptr %6, align 4, !tbaa !20
  %98 = load ptr, ptr %3, align 8, !tbaa !3
  %99 = getelementptr inbounds nuw %struct.Int_Man_t_, ptr %98, i32 0, i32 0
  %100 = load ptr, ptr %99, align 8, !tbaa !22
  %101 = getelementptr inbounds nuw %struct.Sto_Man_t_, ptr %100, i32 0, i32 4
  %102 = load ptr, ptr %101, align 8, !tbaa !23
  store ptr %102, ptr %4, align 8, !tbaa !26
  br label %103

103:                                              ; preds = %161, %97
  %104 = load ptr, ptr %4, align 8, !tbaa !26
  %105 = icmp ne ptr %104, null
  br i1 %105, label %106, label %113

106:                                              ; preds = %103
  %107 = load ptr, ptr %4, align 8, !tbaa !26
  %108 = getelementptr inbounds nuw %struct.Sto_Cls_t_, ptr %107, i32 0, i32 4
  %109 = load i32, ptr %108, align 4
  %110 = lshr i32 %109, 1
  %111 = and i32 %110, 1
  %112 = icmp ne i32 %111, 0
  br label %113

113:                                              ; preds = %106, %103
  %114 = phi i1 [ false, %103 ], [ %112, %106 ]
  br i1 %114, label %115, label %165

115:                                              ; preds = %113
  %116 = load ptr, ptr %4, align 8, !tbaa !26
  %117 = getelementptr inbounds nuw %struct.Sto_Cls_t_, ptr %116, i32 0, i32 4
  %118 = load i32, ptr %117, align 4
  %119 = and i32 %118, 1
  %120 = icmp ne i32 %119, 0
  br i1 %120, label %121, label %122

121:                                              ; preds = %115
  br label %161

122:                                              ; preds = %115
  store i32 0, ptr %7, align 4, !tbaa !20
  br label %123

123:                                              ; preds = %157, %122
  %124 = load i32, ptr %7, align 4, !tbaa !20
  %125 = load ptr, ptr %4, align 8, !tbaa !26
  %126 = getelementptr inbounds nuw %struct.Sto_Cls_t_, ptr %125, i32 0, i32 4
  %127 = load i32, ptr %126, align 4
  %128 = lshr i32 %127, 3
  %129 = and i32 %128, 16777215
  %130 = icmp slt i32 %124, %129
  br i1 %130, label %131, label %160

131:                                              ; preds = %123
  %132 = load ptr, ptr %4, align 8, !tbaa !26
  %133 = getelementptr inbounds nuw %struct.Sto_Cls_t_, ptr %132, i32 0, i32 5
  %134 = load i32, ptr %7, align 4, !tbaa !20
  %135 = sext i32 %134 to i64
  %136 = getelementptr inbounds [0 x i32], ptr %133, i64 0, i64 %135
  %137 = load i32, ptr %136, align 4, !tbaa !20
  %138 = call i32 @lit_var(i32 noundef %137)
  store i32 %138, ptr %5, align 4, !tbaa !20
  %139 = load ptr, ptr %3, align 8, !tbaa !3
  %140 = getelementptr inbounds nuw %struct.Int_Man_t_, ptr %139, i32 0, i32 16
  %141 = load ptr, ptr %140, align 8, !tbaa !27
  %142 = load i32, ptr %5, align 4, !tbaa !20
  %143 = sext i32 %142 to i64
  %144 = getelementptr inbounds i32, ptr %141, i64 %143
  %145 = load i32, ptr %144, align 4, !tbaa !20
  %146 = icmp eq i32 %145, 1
  br i1 %146, label %147, label %156

147:                                              ; preds = %131
  %148 = load i32, ptr %6, align 4, !tbaa !20
  %149 = add nsw i32 %148, 1
  store i32 %149, ptr %6, align 4, !tbaa !20
  %150 = load ptr, ptr %3, align 8, !tbaa !3
  %151 = getelementptr inbounds nuw %struct.Int_Man_t_, ptr %150, i32 0, i32 16
  %152 = load ptr, ptr %151, align 8, !tbaa !27
  %153 = load i32, ptr %5, align 4, !tbaa !20
  %154 = sext i32 %153 to i64
  %155 = getelementptr inbounds i32, ptr %152, i64 %154
  store i32 -1, ptr %155, align 4, !tbaa !20
  br label %156

156:                                              ; preds = %147, %131
  br label %157

157:                                              ; preds = %156
  %158 = load i32, ptr %7, align 4, !tbaa !20
  %159 = add nsw i32 %158, 1
  store i32 %159, ptr %7, align 4, !tbaa !20
  br label %123, !llvm.loop !34

160:                                              ; preds = %123
  br label %161

161:                                              ; preds = %160, %121
  %162 = load ptr, ptr %4, align 8, !tbaa !26
  %163 = getelementptr inbounds nuw %struct.Sto_Cls_t_, ptr %162, i32 0, i32 0
  %164 = load ptr, ptr %163, align 8, !tbaa !30
  store ptr %164, ptr %4, align 8, !tbaa !26
  br label %103, !llvm.loop !35

165:                                              ; preds = %113
  store i32 0, ptr %6, align 4, !tbaa !20
  store i32 0, ptr %7, align 4, !tbaa !20
  br label %166

166:                                              ; preds = %195, %165
  %167 = load i32, ptr %7, align 4, !tbaa !20
  %168 = load ptr, ptr %3, align 8, !tbaa !3
  %169 = getelementptr inbounds nuw %struct.Int_Man_t_, ptr %168, i32 0, i32 0
  %170 = load ptr, ptr %169, align 8, !tbaa !22
  %171 = getelementptr inbounds nuw %struct.Sto_Man_t_, ptr %170, i32 0, i32 0
  %172 = load i32, ptr %171, align 8, !tbaa !36
  %173 = icmp slt i32 %167, %172
  br i1 %173, label %174, label %198

174:                                              ; preds = %166
  %175 = load ptr, ptr %3, align 8, !tbaa !3
  %176 = getelementptr inbounds nuw %struct.Int_Man_t_, ptr %175, i32 0, i32 16
  %177 = load ptr, ptr %176, align 8, !tbaa !27
  %178 = load i32, ptr %7, align 4, !tbaa !20
  %179 = sext i32 %178 to i64
  %180 = getelementptr inbounds i32, ptr %177, i64 %179
  %181 = load i32, ptr %180, align 4, !tbaa !20
  %182 = icmp eq i32 %181, -1
  br i1 %182, label %183, label %194

183:                                              ; preds = %174
  %184 = load i32, ptr %6, align 4, !tbaa !20
  %185 = add nsw i32 %184, 1
  store i32 %185, ptr %6, align 4, !tbaa !20
  %186 = load ptr, ptr %3, align 8, !tbaa !3
  %187 = getelementptr inbounds nuw %struct.Int_Man_t_, ptr %186, i32 0, i32 16
  %188 = load ptr, ptr %187, align 8, !tbaa !27
  %189 = load i32, ptr %7, align 4, !tbaa !20
  %190 = sext i32 %189 to i64
  %191 = getelementptr inbounds i32, ptr %188, i64 %190
  %192 = load i32, ptr %191, align 4, !tbaa !20
  %193 = sub nsw i32 %192, %184
  store i32 %193, ptr %191, align 4, !tbaa !20
  br label %194

194:                                              ; preds = %183, %174
  br label %195

195:                                              ; preds = %194
  %196 = load i32, ptr %7, align 4, !tbaa !20
  %197 = add nsw i32 %196, 1
  store i32 %197, ptr %7, align 4, !tbaa !20
  br label %166, !llvm.loop !37

198:                                              ; preds = %166
  %199 = load i32, ptr %6, align 4, !tbaa !20
  store i32 %199, ptr %2, align 4
  store i32 1, ptr %8, align 4
  br label %200

200:                                              ; preds = %198, %93
  call void @llvm.lifetime.end.p0(i64 4, ptr %7) #9
  call void @llvm.lifetime.end.p0(i64 4, ptr %6) #9
  call void @llvm.lifetime.end.p0(i64 4, ptr %5) #9
  call void @llvm.lifetime.end.p0(i64 8, ptr %4) #9
  %201 = load i32, ptr %2, align 4
  ret i32 %201
}