; Function Attrs: nofree norecurse nosync nounwind memory(readwrite, inaccessiblemem: none) uwtable
define i32 @Int_ManGlobalVars(ptr noundef readonly captures(none) %0) local_unnamed_addr #5 {
  %2 = load ptr, ptr %0, align 8, !tbaa !18
  %3 = getelementptr inbounds nuw i8, ptr %2, i64 16
  %.05168 = load ptr, ptr %3, align 8, !tbaa !19
  %.not69 = icmp eq ptr %.05168, null
  br i1 %.not69, label %.critedge.thread, label %.lr.ph71

.lr.ph71:                                         ; preds = %1
  %4 = getelementptr inbounds nuw i8, ptr %0, i64 152
  br label %5

.loopexit66:                                      ; preds = %12, %.preheader65
  %.051 = load ptr, ptr %.05170, align 8, !tbaa !19
  %.not = icmp eq ptr %.051, null
  br i1 %.not, label %.critedge, label %5, !llvm.loop !21

5:                                                ; preds = %.lr.ph71, %.loopexit66
  %.05170 = phi ptr [ %.05168, %.lr.ph71 ], [ %.051, %.loopexit66 ]
  %6 = getelementptr inbounds nuw i8, ptr %.05170, i64 28
  %7 = load i32, ptr %6, align 4
  %8 = and i32 %7, 3
  %or.cond.not = icmp eq i32 %8, 3
  br i1 %or.cond.not, label %.preheader65, label %.critedge

.preheader65:                                     ; preds = %5
  %9 = and i32 %7, 134217720
  %.not89 = icmp eq i32 %9, 0
  br i1 %.not89, label %.loopexit66, label %.lr.ph

.lr.ph:                                           ; preds = %.preheader65
  %10 = load ptr, ptr %4, align 8, !tbaa !23
  %11 = getelementptr inbounds nuw i8, ptr %.05170, i64 32
  br label %12

12:                                               ; preds = %.lr.ph, %12
  %indvars.iv = phi i64 [ 0, %.lr.ph ], [ %indvars.iv.next, %12 ]
  %13 = getelementptr inbounds nuw [0 x i32], ptr %11, i64 0, i64 %indvars.iv
  %14 = load i32, ptr %13, align 4, !tbaa !24
  %15 = ashr i32 %14, 1
  %16 = sext i32 %15 to i64
  %17 = getelementptr inbounds i32, ptr %10, i64 %16
  store i32 1, ptr %17, align 4, !tbaa !24
  %indvars.iv.next = add nuw nsw i64 %indvars.iv, 1
  %18 = load i32, ptr %6, align 4
  %19 = lshr i32 %18, 3
  %20 = and i32 %19, 16777215
  %21 = zext nneg i32 %20 to i64
  %22 = icmp samesign ult i64 %indvars.iv.next, %21
  br i1 %22, label %12, label %.loopexit66, !llvm.loop !25

.critedge:                                        ; preds = %5, %.loopexit66
  %23 = getelementptr inbounds nuw i8, ptr %0, i64 72
  %24 = load i32, ptr %23, align 8, !tbaa !17
  %.not57 = icmp eq i32 %24, 0
  br i1 %.not57, label %.lr.ph83, label %.preheader63

.critedge.thread:                                 ; preds = %1
  %25 = getelementptr inbounds nuw i8, ptr %0, i64 72
  %26 = load i32, ptr %25, align 8, !tbaa !17
  %.not57103 = icmp eq i32 %26, 0
  br i1 %.not57103, label %.critedge2, label %.preheader63

.preheader63:                                     ; preds = %.critedge.thread, %.critedge
  %27 = phi i32 [ %26, %.critedge.thread ], [ %24, %.critedge ]
  %28 = phi ptr [ %25, %.critedge.thread ], [ %23, %.critedge ]
  %29 = icmp sgt i32 %27, 0
  br i1 %29, label %.lr.ph74, label %.loopexit

.lr.ph74:                                         ; preds = %.preheader63
  %30 = getelementptr inbounds nuw i8, ptr %0, i64 152
  %31 = load ptr, ptr %30, align 8, !tbaa !23
  %32 = getelementptr inbounds nuw i8, ptr %0, i64 8
  br label %34

.lr.ph83:                                         ; preds = %.critedge
  %33 = getelementptr inbounds nuw i8, ptr %0, i64 152
  br label %44

34:                                               ; preds = %.lr.ph74, %34
  %indvars.iv93 = phi i64 [ 0, %.lr.ph74 ], [ %indvars.iv.next94, %34 ]
  %35 = trunc nuw nsw i64 %indvars.iv93 to i32
  %36 = xor i32 %35, -1
  %37 = getelementptr inbounds nuw [16 x i32], ptr %32, i64 0, i64 %indvars.iv93
  %38 = load i32, ptr %37, align 4, !tbaa !24
  %39 = sext i32 %38 to i64
  %40 = getelementptr inbounds i32, ptr %31, i64 %39
  store i32 %36, ptr %40, align 4, !tbaa !24
  %indvars.iv.next94 = add nuw nsw i64 %indvars.iv93, 1
  %41 = load i32, ptr %28, align 8, !tbaa !17
  %42 = sext i32 %41 to i64
  %43 = icmp slt i64 %indvars.iv.next94, %42
  br i1 %43, label %34, label %.loopexit, !llvm.loop !26

44:                                               ; preds = %.lr.ph83, %.loopexit61
  %.15282 = phi ptr [ %.05168, %.lr.ph83 ], [ %.152, %.loopexit61 ]
  %45 = getelementptr inbounds nuw i8, ptr %.15282, i64 28
  %46 = load i32, ptr %45, align 4
  %47 = and i32 %46, 2
  %.not59 = icmp eq i32 %47, 0
  br i1 %.not59, label %.critedge2, label %48

48:                                               ; preds = %44
  %49 = and i32 %46, 1
  %.not60 = icmp ne i32 %49, 0
  %50 = and i32 %46, 134217720
  %.not90 = icmp eq i32 %50, 0
  %or.cond = or i1 %.not60, %.not90
  br i1 %or.cond, label %.loopexit61, label %.lr.ph77

.lr.ph77:                                         ; preds = %48
  %51 = getelementptr inbounds nuw i8, ptr %.15282, i64 32
  %52 = load ptr, ptr %33, align 8, !tbaa !23
  br label %53

53:                                               ; preds = %.lr.ph77, %63
  %54 = phi i32 [ %46, %.lr.ph77 ], [ %64, %63 ]
  %indvars.iv96 = phi i64 [ 0, %.lr.ph77 ], [ %indvars.iv.next97, %63 ]
  %55 = getelementptr inbounds nuw [0 x i32], ptr %51, i64 0, i64 %indvars.iv96
  %56 = load i32, ptr %55, align 4, !tbaa !24
  %57 = ashr i32 %56, 1
  %58 = sext i32 %57 to i64
  %59 = getelementptr inbounds i32, ptr %52, i64 %58
  %60 = load i32, ptr %59, align 4, !tbaa !24
  %61 = icmp eq i32 %60, 1
  br i1 %61, label %62, label %63

62:                                               ; preds = %53
  store i32 -1, ptr %59, align 4, !tbaa !24
  %.pre = load i32, ptr %45, align 4
  br label %63

63:                                               ; preds = %53, %62
  %64 = phi i32 [ %.pre, %62 ], [ %54, %53 ]
  %indvars.iv.next97 = add nuw nsw i64 %indvars.iv96, 1
  %65 = lshr i32 %64, 3
  %66 = and i32 %65, 16777215
  %67 = zext nneg i32 %66 to i64
  %68 = icmp samesign ult i64 %indvars.iv.next97, %67
  br i1 %68, label %53, label %.loopexit61, !llvm.loop !27

.loopexit61:                                      ; preds = %63, %48
  %.152 = load ptr, ptr %.15282, align 8, !tbaa !19
  %.not58 = icmp eq ptr %.152, null
  br i1 %.not58, label %.critedge2, label %44, !llvm.loop !28

.critedge2:                                       ; preds = %44, %.loopexit61, %.critedge.thread
  %69 = load i32, ptr %2, align 8, !tbaa !29
  %70 = icmp sgt i32 %69, 0
  br i1 %70, label %.lr.ph87, label %.loopexit

.lr.ph87:                                         ; preds = %.critedge2
  %71 = getelementptr inbounds nuw i8, ptr %0, i64 152
  %72 = load ptr, ptr %71, align 8, !tbaa !23
  br label %73

73:                                               ; preds = %.lr.ph87, %81
  %74 = phi i32 [ %69, %.lr.ph87 ], [ %82, %81 ]
  %indvars.iv99 = phi i64 [ 0, %.lr.ph87 ], [ %indvars.iv.next100, %81 ]
  %.485 = phi i32 [ 0, %.lr.ph87 ], [ %.5, %81 ]
  %75 = getelementptr inbounds nuw i32, ptr %72, i64 %indvars.iv99
  %76 = load i32, ptr %75, align 4, !tbaa !24
  %77 = icmp eq i32 %76, -1
  br i1 %77, label %78, label %81

78:                                               ; preds = %73
  %79 = add nsw i32 %.485, 1
  %80 = xor i32 %.485, -1
  store i32 %80, ptr %75, align 4, !tbaa !24
  %.pre102 = load i32, ptr %2, align 8, !tbaa !29
  br label %81

81:                                               ; preds = %73, %78
  %82 = phi i32 [ %.pre102, %78 ], [ %74, %73 ]
  %.5 = phi i32 [ %79, %78 ], [ %.485, %73 ]
  %indvars.iv.next100 = add nuw nsw i64 %indvars.iv99, 1
  %83 = sext i32 %82 to i64
  %84 = icmp slt i64 %indvars.iv.next100, %83
  br i1 %84, label %73, label %.loopexit, !llvm.loop !31

.loopexit:                                        ; preds = %34, %81, %.preheader63, %.critedge2
  %.050 = phi i32 [ 0, %.critedge2 ], [ %27, %.preheader63 ], [ %.5, %81 ], [ %41, %34 ]
  ret i32 %.050
}